; Function Attrs: null_pointer_is_valid sspstrong uwtable
define internal fastcc void @decode_GIAS_Request_free_callback(ptr noundef %0, ptr noundef %1, ptr noundef %2, ptr noundef %3, ptr noundef %4, ptr noundef readonly captures(none) %5, i1 noundef zeroext %6) unnamed_addr #0 {
  %8 = getelementptr inbounds nuw i8, ptr %5, i64 7
  %9 = load i8, ptr %8, align 1
  switch i8 %9, label %17 [
    i8 0, label %10
    i8 1, label %12
  ]

10:                                               ; preds = %7
  %11 = load i32, ptr @hf_GIAS_Request_free_callback_id, align 4
  tail call void @giop_add_CDR_string(ptr noundef %2, ptr noundef %0, ptr noundef %4, i1 noundef zeroext %6, i32 noundef 12, i32 noundef %11)
  br label %20

12:                                               ; preds = %7
  %13 = getelementptr inbounds nuw i8, ptr %5, i64 16
  %14 = load i32, ptr %13, align 8
  %switch = icmp ult i32 %14, 2
  br i1 %switch, label %20, label %15

15:                                               ; preds = %12
  %16 = tail call ptr (ptr, ptr, ptr, ptr, ...) @expert_add_info_format(ptr noundef %1, ptr noundef %3, ptr noundef nonnull @ei_gias_unknown_exception, ptr noundef nonnull @.str.826, i32 noundef %14)
  br label %20

17:                                               ; preds = %7
  %18 = zext i8 %9 to i32
  %19 = tail call ptr (ptr, ptr, ptr, ptr, ...) @expert_add_info_format(ptr noundef %1, ptr noundef %3, ptr noundef nonnull @ei_gias_unknown_giop_msg, ptr noundef nonnull @.str.827, i32 noundef %18)
  br label %20

20:                                               ; preds = %12, %15, %17, %10
  ret void
}